target datalayout = "e-m:e-p270:32:32-p271:32:32-p272:64:64-i64:64-i128:128-f80:128-n8:16:32:64-S128"
target triple = "x86_64-pc-linux-gnu"

@.str.23 = private unnamed_addr constant [12 x i8] c"max_request\00", align 1

; Function Attrs: nounwind uwtable
define internal i32 @dummy_rand_get_ctx_params(ptr noundef %0, ptr noundef %1) #0 {
  %3 = alloca i32, align 4
  %4 = alloca ptr, align 8
  %5 = alloca ptr, align 8
  %6 = alloca ptr, align 8
  %7 = alloca i32, align 4
  store ptr %0, ptr %4, align 8, !tbaa !25
  store ptr %1, ptr %5, align 8, !tbaa !30
  call void @llvm.lifetime.start.p0(i64 8, ptr %6) #3
  %8 = load ptr, ptr %5, align 8, !tbaa !30
  %9 = call ptr @OSSL_PARAM_locate(ptr noundef %8, ptr noundef @.str.23)
  store ptr %9, ptr %6, align 8, !tbaa !30
  %10 = load ptr, ptr %6, align 8, !tbaa !30
  %11 = icmp ne ptr %10, null
  br i1 %11, label %12, label %17

12:                                               ; preds = %2
  %13 = load ptr, ptr %6, align 8, !tbaa !30
  %14 = call i32 @OSSL_PARAM_set_size_t(ptr noundef %13, i64 noundef 2147483647)
  %15 = icmp ne i32 %14, 0
  br i1 %15, label %17, label %16

16:                                               ; preds = %12
  store i32 0, ptr %3, align 4
  store i32 1, ptr %7, align 4
  br label %18

17:                                               ; preds = %12, %2
  store i32 1, ptr %3, align 4
  store i32 1, ptr %7, align 4
  br label %18

18:                                               ; preds = %17, %16
  call void @llvm.lifetime.end.p0(i64 8, ptr %6) #3
  %19 = load i32, ptr %3, align 4
  ret i32 %19
}